target datalayout = "e-m:e-p270:32:32-p271:32:32-p272:64:64-i64:64-i128:128-f80:128-n8:16:32:64-S128"
target triple = "x86_64-pc-linux-gnu"

%struct.dbd_job_heavy_msg_t = type { ptr, ptr, ptr, ptr, ptr }

@.str = private unnamed_addr constant [16 x i8] c"slurmdbd_pack.c\00", align 1
@__func__._unpack_job_heavy_msg = private unnamed_addr constant [22 x i8] c"_unpack_job_heavy_msg\00", align 1

; Function Attrs: nounwind uwtable
define internal i32 @_unpack_job_heavy_msg(ptr noundef %0, i16 noundef zeroext %1, ptr noundef %2) #0 {
  %4 = alloca i32, align 4
  %5 = alloca ptr, align 8
  %6 = alloca i16, align 2
  %7 = alloca ptr, align 8
  %8 = alloca ptr, align 8
  %9 = alloca i32, align 4
  %10 = alloca i32, align 4
  %11 = alloca i32, align 4
  %12 = alloca i32, align 4
  %13 = alloca i32, align 4
  store ptr %0, ptr %5, align 8
  store i16 %1, ptr %6, align 2
  store ptr %2, ptr %7, align 8
  call void @llvm.lifetime.start.p0(i64 8, ptr %8) #5
  %14 = call ptr @slurm_xcalloc(i64 noundef 1, i64 noundef 40, i1 noundef zeroext true, i1 noundef zeroext false, ptr noundef @.str, i32 noundef 859, ptr noundef @__func__._unpack_job_heavy_msg)
  store ptr %14, ptr %8, align 8
  %15 = load ptr, ptr %8, align 8
  %16 = load ptr, ptr %5, align 8
  store ptr %15, ptr %16, align 8
  %17 = load i16, ptr %6, align 2
  %18 = zext i16 %17 to i32
  %19 = icmp sge i32 %18, 10240
  br i1 %19, label %20, label %73

20:                                               ; preds = %3
  br label %21

21:                                               ; preds = %20
  call void @llvm.lifetime.start.p0(i64 4, ptr %9) #5
  %22 = load ptr, ptr %8, align 8
  %23 = getelementptr inbounds nuw %struct.dbd_job_heavy_msg_t, ptr %22, i32 0, i32 0
  %24 = load ptr, ptr %7, align 8
  %25 = call i32 @unpackstr_xmalloc_chooser(ptr noundef %23, ptr noundef %9, ptr noundef %24)
  %26 = icmp ne i32 %25, 0
  br i1 %26, label %27, label %28

27:                                               ; preds = %21
  store i32 4, ptr %10, align 4
  br label %29

28:                                               ; preds = %21
  store i32 0, ptr %10, align 4
  br label %29

29:                                               ; preds = %27, %28
  call void @llvm.lifetime.end.p0(i64 4, ptr %9) #5
  %30 = load i32, ptr %10, align 4
  switch i32 %30, label %78 [
    i32 0, label %31
    i32 4, label %75
  ]

31:                                               ; preds = %29
  br label %32

32:                                               ; preds = %31
  br label %33

33:                                               ; preds = %32
  br label %34

34:                                               ; preds = %33
  call void @llvm.lifetime.start.p0(i64 4, ptr %11) #5
  %35 = load ptr, ptr %8, align 8
  %36 = getelementptr inbounds nuw %struct.dbd_job_heavy_msg_t, ptr %35, i32 0, i32 1
  %37 = load ptr, ptr %7, align 8
  %38 = call i32 @unpackstr_xmalloc_chooser(ptr noundef %36, ptr noundef %11, ptr noundef %37)
  %39 = icmp ne i32 %38, 0
  br i1 %39, label %40, label %41

40:                                               ; preds = %34
  store i32 4, ptr %10, align 4
  br label %42

41:                                               ; preds = %34
  store i32 0, ptr %10, align 4
  br label %42

42:                                               ; preds = %40, %41
  call void @llvm.lifetime.end.p0(i64 4, ptr %11) #5
  %43 = load i32, ptr %10, align 4
  switch i32 %43, label %78 [
    i32 0, label %44
    i32 4, label %75
  ]

44:                                               ; preds = %42
  br label %45

45:                                               ; preds = %44
  br label %46

46:                                               ; preds = %45
  br label %47

47:                                               ; preds = %46
  call void @llvm.lifetime.start.p0(i64 4, ptr %12) #5
  %48 = load ptr, ptr %8, align 8
  %49 = getelementptr inbounds nuw %struct.dbd_job_heavy_msg_t, ptr %48, i32 0, i32 2
  %50 = load ptr, ptr %7, align 8
  %51 = call i32 @unpackstr_xmalloc_chooser(ptr noundef %49, ptr noundef %12, ptr noundef %50)
  %52 = icmp ne i32 %51, 0
  br i1 %52, label %53, label %54

53:                                               ; preds = %47
  store i32 4, ptr %10, align 4
  br label %55

54:                                               ; preds = %47
  store i32 0, ptr %10, align 4
  br label %55

55:                                               ; preds = %53, %54
  call void @llvm.lifetime.end.p0(i64 4, ptr %12) #5
  %56 = load i32, ptr %10, align 4
  switch i32 %56, label %78 [
    i32 0, label %57
    i32 4, label %75
  ]

57:                                               ; preds = %55
  br label %58

58:                                               ; preds = %57
  br label %59

59:                                               ; preds = %58
  br label %60

60:                                               ; preds = %59
  call void @llvm.lifetime.start.p0(i64 4, ptr %13) #5
  %61 = load ptr, ptr %8, align 8
  %62 = getelementptr inbounds nuw %struct.dbd_job_heavy_msg_t, ptr %61, i32 0, i32 3
  %63 = load ptr, ptr %7, align 8
  %64 = call i32 @unpackstr_xmalloc_chooser(ptr noundef %62, ptr noundef %13, ptr noundef %63)
  %65 = icmp ne i32 %64, 0
  br i1 %65, label %66, label %67

66:                                               ; preds = %60
  store i32 4, ptr %10, align 4
  br label %68

67:                                               ; preds = %60
  store i32 0, ptr %10, align 4
  br label %68

68:                                               ; preds = %66, %67
  call void @llvm.lifetime.end.p0(i64 4, ptr %13) #5
  %69 = load i32, ptr %10, align 4
  switch i32 %69, label %78 [
    i32 0, label %70
    i32 4, label %75
  ]

70:                                               ; preds = %68
  br label %71

71:                                               ; preds = %70
  br label %72

72:                                               ; preds = %71
  br label %74

73:                                               ; preds = %3
  br label %75

74:                                               ; preds = %72
  store i32 0, ptr %4, align 4
  store i32 1, ptr %10, align 4
  br label %78

75:                                               ; preds = %68, %55, %42, %29, %73
  %76 = load ptr, ptr %8, align 8
  call void @slurmdbd_free_job_heavy_msg(ptr noundef %76)
  %77 = load ptr, ptr %5, align 8
  store ptr null, ptr %77, align 8
  store i32 -1, ptr %4, align 4
  store i32 1, ptr %10, align 4
  br label %78

78:                                               ; preds = %75, %74, %68, %55, %42, %29
  call void @llvm.lifetime.end.p0(i64 8, ptr %8) #5
  %79 = load i32, ptr %4, align 4
  ret i32 %79
}