; Function Attrs: nounwind uwtable
define internal range(i32 -1, 1) i32 @_unpack_job_heavy_msg(ptr noundef writeonly captures(none) initializes((0, 8)) %0, i16 noundef zeroext %1, ptr noundef %2) #0 {
  %4 = alloca i32, align 4
  %5 = alloca i32, align 4
  %6 = alloca i32, align 4
  %7 = alloca i32, align 4
  %8 = tail call ptr @slurm_xcalloc(i64 noundef 1, i64 noundef 40, i1 noundef zeroext true, i1 noundef zeroext false, ptr noundef nonnull @.str, i32 noundef 859, ptr noundef nonnull @__func__._unpack_job_heavy_msg) #5
  store ptr %8, ptr %0, align 8
  %9 = icmp ugt i16 %1, 10239
  br i1 %9, label %10, label %21

10:                                               ; preds = %3
  call void @llvm.lifetime.start.p0(i64 4, ptr nonnull %4) #5
  %11 = call i32 @unpackstr_xmalloc_chooser(ptr noundef %8, ptr noundef nonnull %4, ptr noundef %2) #5
  %.not = icmp eq i32 %11, 0
  call void @llvm.lifetime.end.p0(i64 4, ptr nonnull %4) #5
  br i1 %.not, label %12, label %21

12:                                               ; preds = %10
  call void @llvm.lifetime.start.p0(i64 4, ptr nonnull %5) #5
  %13 = getelementptr inbounds nuw i8, ptr %8, i64 8
  %14 = call i32 @unpackstr_xmalloc_chooser(ptr noundef nonnull %13, ptr noundef nonnull %5, ptr noundef %2) #5
  %.not18 = icmp eq i32 %14, 0
  call void @llvm.lifetime.end.p0(i64 4, ptr nonnull %5) #5
  br i1 %.not18, label %15, label %21

15:                                               ; preds = %12
  call void @llvm.lifetime.start.p0(i64 4, ptr nonnull %6) #5
  %16 = getelementptr inbounds nuw i8, ptr %8, i64 16
  %17 = call i32 @unpackstr_xmalloc_chooser(ptr noundef nonnull %16, ptr noundef nonnull %6, ptr noundef %2) #5
  %.not19 = icmp eq i32 %17, 0
  call void @llvm.lifetime.end.p0(i64 4, ptr nonnull %6) #5
  br i1 %.not19, label %18, label %21

18:                                               ; preds = %15
  call void @llvm.lifetime.start.p0(i64 4, ptr nonnull %7) #5
  %19 = getelementptr inbounds nuw i8, ptr %8, i64 24
  %20 = call i32 @unpackstr_xmalloc_chooser(ptr noundef nonnull %19, ptr noundef nonnull %7, ptr noundef %2) #5
  %.not20 = icmp eq i32 %20, 0
  call void @llvm.lifetime.end.p0(i64 4, ptr nonnull %7) #5
  br i1 %.not20, label %22, label %21

21:                                               ; preds = %18, %15, %12, %10, %3
  call void @slurmdbd_free_job_heavy_msg(ptr noundef %8) #5
  store ptr null, ptr %0, align 8
  br label %22

22:                                               ; preds = %18, %21
  %.017 = phi i32 [ -1, %21 ], [ 0, %18 ]
  ret i32 %.017
}